; Function Attrs: nounwind uwtable
define nonnull ptr @l_UInt64_decEq___boxed(ptr noundef %0, ptr noundef %1) local_unnamed_addr #0 {
  %3 = getelementptr i8, ptr %0, i64 8
  %.val10 = load i64, ptr %3, align 8, !tbaa !17
  %4 = ptrtoint ptr %0 to i64
  %5 = and i64 %4, 1
  %.not = icmp eq i64 %5, 0
  br i1 %.not, label %6, label %lean_dec.exit7

6:                                                ; preds = %2
  %7 = load i32, ptr %0, align 4, !tbaa !4
  %8 = icmp sgt i32 %7, 1
  br i1 %8, label %9, label %11, !prof !9

9:                                                ; preds = %6
  %10 = add nsw i32 %7, -1
  store i32 %10, ptr %0, align 4, !tbaa !4
  br label %lean_dec.exit7

11:                                               ; preds = %6
  %.not.i = icmp eq i32 %7, 0
  br i1 %.not.i, label %lean_dec.exit7, label %12

12:                                               ; preds = %11
  tail call void @lean_dec_ref_cold(ptr noundef nonnull %0) #11
  br label %lean_dec.exit7

lean_dec.exit7:                                   ; preds = %12, %11, %9, %2
  %13 = getelementptr i8, ptr %1, i64 8
  %.val = load i64, ptr %13, align 8, !tbaa !17
  %14 = ptrtoint ptr %1 to i64
  %15 = and i64 %14, 1
  %.not11 = icmp eq i64 %15, 0
  br i1 %.not11, label %16, label %lean_dec.exit

16:                                               ; preds = %lean_dec.exit7
  %17 = load i32, ptr %1, align 4, !tbaa !4
  %18 = icmp sgt i32 %17, 1
  br i1 %18, label %19, label %21, !prof !9

19:                                               ; preds = %16
  %20 = add nsw i32 %17, -1
  store i32 %20, ptr %1, align 4, !tbaa !4
  br label %lean_dec.exit

21:                                               ; preds = %16
  %.not.i8 = icmp eq i32 %17, 0
  br i1 %.not.i8, label %lean_dec.exit, label %22

22:                                               ; preds = %21
  tail call void @lean_dec_ref_cold(ptr noundef nonnull %1) #11
  br label %lean_dec.exit

lean_dec.exit:                                    ; preds = %22, %21, %19, %lean_dec.exit7
  %23 = icmp eq i64 %.val10, %.val
  %24 = select i1 %23, i64 3, i64 1
  %25 = inttoptr i64 %24 to ptr
  ret ptr %25
}